	.file	"2d_arrays.c"
	.text
	.globl	sum_elements
	.type	sum_elements, @function
sum_elements:
.LFB23:
	.cfi_startproc
	endbr64
	leaq	0(,%rdi,8), %rdx
	subq	%rdi, %rdx
	addq	%rsi, %rdx
	leaq	(%rsi,%rsi,4), %rax
	addq	%rax, %rdi
	leaq	Q(%rip), %rax
	movq	(%rax,%rdi,8), %rax
	leaq	P(%rip), %rcx
	addq	(%rcx,%rdx,8), %rax
	ret
	.cfi_endproc
.LFE23:
	.size	sum_elements, .-sum_elements
	.section	.rodata.str1.1,"aMS",@progbits,1
.LC0:
	.string	"%ld %ld"
.LC1:
	.string	"%ld\n"
	.text
	.globl	main
	.type	main, @function
main:
.LFB24:
	.cfi_startproc
	endbr64
	pushq	%rbx
	.cfi_def_cfa_offset 16
	.cfi_offset 3, -16
	subq	$32, %rsp
	.cfi_def_cfa_offset 48
	movl	$40, %ebx
	movq	%fs:(%rbx), %rax
	movq	%rax, 24(%rsp)
	xorl	%eax, %eax
	leaq	16(%rsp), %rdx
	leaq	8(%rsp), %rsi
	leaq	.LC0(%rip), %rdi
	call	__isoc99_scanf@PLT
	movq	16(%rsp), %rsi
	movq	8(%rsp), %rdi
	call	sum_elements
	movq	%rax, %rdx
	leaq	.LC1(%rip), %rsi
	movl	$1, %edi
	movl	$0, %eax
	call	__printf_chk@PLT
	movq	24(%rsp), %rax
	xorq	%fs:(%rbx), %rax
	jne	.L5
	movl	$0, %eax
	addq	$32, %rsp
	.cfi_remember_state
	.cfi_def_cfa_offset 16
	popq	%rbx
	.cfi_def_cfa_offset 8
	ret
.L5:
	.cfi_restore_state
	call	__stack_chk_fail@PLT
	.cfi_endproc
.LFE24:
	.size	main, .-main
	.comm	Q,280,32
	.comm	P,280,32
	.ident	"GCC: (Ubuntu 9.3.0-17ubuntu1~20.04) 9.3.0"
	.section	.note.GNU-stack,"",@progbits
	.section	.note.gnu.property,"a"
	.align 8
	.long	 1f - 0f
	.long	 4f - 1f
	.long	 5
0:
	.string	 "GNU"
1:
	.align 8
	.long	 0xc0000002
	.long	 3f - 2f
2:
	.long	 0x3
3:
	.align 8
4:
